target datalayout = "e-m:e-p270:32:32-p271:32:32-p272:64:64-i64:64-i128:128-f80:128-n8:16:32:64-S128"
target triple = "x86_64-pc-linux-gnu"

%struct.SUNStepper_ = type { ptr, ptr, ptr, i32 }
%struct.SUNStepper_Ops_ = type { ptr, ptr, ptr, ptr, ptr, ptr, ptr, ptr }

; Function Attrs: nounwind uwtable
define i32 @SUNStepper_Destroy(ptr noundef %0) #0 {
  %2 = alloca ptr, align 8
  %3 = alloca ptr, align 8
  store ptr %0, ptr %2, align 8, !tbaa !8
  %4 = load ptr, ptr %2, align 8, !tbaa !8
  %5 = icmp ne ptr %4, null
  br i1 %5, label %6, label %30

6:                                                ; preds = %1
  call void @llvm.lifetime.start.p0(i64 8, ptr %3) #4
  %7 = load ptr, ptr %2, align 8, !tbaa !8
  %8 = load ptr, ptr %7, align 8, !tbaa !10
  %9 = getelementptr inbounds nuw %struct.SUNStepper_, ptr %8, i32 0, i32 1
  %10 = load ptr, ptr %9, align 8, !tbaa !18
  store ptr %10, ptr %3, align 8, !tbaa !28
  %11 = load ptr, ptr %3, align 8, !tbaa !28
  %12 = icmp ne ptr %11, null
  br i1 %12, label %13, label %25

13:                                               ; preds = %6
  %14 = load ptr, ptr %3, align 8, !tbaa !28
  %15 = getelementptr inbounds nuw %struct.SUNStepper_Ops_, ptr %14, i32 0, i32 7
  %16 = load ptr, ptr %15, align 8, !tbaa !27
  %17 = icmp ne ptr %16, null
  br i1 %17, label %18, label %25

18:                                               ; preds = %13
  %19 = load ptr, ptr %3, align 8, !tbaa !28
  %20 = getelementptr inbounds nuw %struct.SUNStepper_Ops_, ptr %19, i32 0, i32 7
  %21 = load ptr, ptr %20, align 8, !tbaa !27
  %22 = load ptr, ptr %2, align 8, !tbaa !8
  %23 = load ptr, ptr %22, align 8, !tbaa !10
  %24 = call i32 %21(ptr noundef %23)
  br label %25

25:                                               ; preds = %18, %13, %6
  %26 = load ptr, ptr %3, align 8, !tbaa !28
  call void @free(ptr noundef %26) #4
  %27 = load ptr, ptr %2, align 8, !tbaa !8
  %28 = load ptr, ptr %27, align 8, !tbaa !10
  call void @free(ptr noundef %28) #4
  %29 = load ptr, ptr %2, align 8, !tbaa !8
  store ptr null, ptr %29, align 8, !tbaa !10
  call void @llvm.lifetime.end.p0(i64 8, ptr %3) #4
  br label %30

30:                                               ; preds = %25, %1
  ret i32 0
}