; Function Attrs: nounwind uwtable
define noundef i32 @SUNStepper_Destroy(ptr noundef captures(address_is_null) %0) local_unnamed_addr #2 {
  %.not = icmp eq ptr %0, null
  br i1 %.not, label %13, label %2

2:                                                ; preds = %1
  %3 = load ptr, ptr %0, align 8, !tbaa !14
  %4 = getelementptr inbounds nuw i8, ptr %3, i64 8
  %5 = load ptr, ptr %4, align 8, !tbaa !13
  %.not11 = icmp eq ptr %5, null
  br i1 %.not11, label %11, label %6

6:                                                ; preds = %2
  %7 = getelementptr inbounds nuw i8, ptr %5, i64 56
  %8 = load ptr, ptr %7, align 8, !tbaa !16
  %.not12 = icmp eq ptr %8, null
  br i1 %.not12, label %11, label %9

9:                                                ; preds = %6
  %10 = tail call i32 %8(ptr noundef nonnull %3) #9
  br label %11

11:                                               ; preds = %9, %6, %2
  tail call void @free(ptr noundef %5) #9
  %12 = load ptr, ptr %0, align 8, !tbaa !14
  tail call void @free(ptr noundef %12) #9
  store ptr null, ptr %0, align 8, !tbaa !14
  br label %13

13:                                               ; preds = %11, %1
  ret i32 0
}